; ModuleID = '19/227.c'
source_filename = "19/227.c"
target datalayout = "e-m:e-p270:32:32-p271:32:32-p272:64:64-i64:64-f80:128-n8:16:32:64-S128"
target triple = "x86_64-pc-linux-gnu"

@.str = private unnamed_addr constant [5 x i8] c"%s%s\00", align 1
@.str.1 = private unnamed_addr constant [2 x i8] c" \00", align 1
@.str.2 = private unnamed_addr constant [3 x i8] c"%s\00", align 1

; Function Attrs: noinline nounwind uwtable
define dso_local i32 @main(i32 %0, i8** %1) #0 {
  %3 = alloca i32, align 4
  %4 = alloca i32, align 4
  %5 = alloca i8**, align 8
  %6 = alloca [255 x i8], align 16
  %7 = alloca [255 x i8], align 16
  %8 = alloca [255 x i8], align 16
  %9 = alloca i8*, align 8
  %10 = alloca i8*, align 8
  store i32 0, i32* %3, align 4
  store i32 %0, i32* %4, align 4
  store i8** %1, i8*** %5, align 8
  %11 = getelementptr inbounds [255 x i8], [255 x i8]* %6, i64 0, i64 0
  store i8* %11, i8** %9, align 8
  %12 = load i8*, i8** %9, align 8
  %13 = call i32 (i8*, ...) bitcast (i32 (...)* @gets to i32 (i8*, ...)*)(i8* %12)
  %14 = getelementptr inbounds [255 x i8], [255 x i8]* %7, i64 0, i64 0
  %15 = getelementptr inbounds [255 x i8], [255 x i8]* %8, i64 0, i64 0
  %16 = call i32 (i8*, ...) @__isoc99_scanf(i8* getelementptr inbounds ([5 x i8], [5 x i8]* @.str, i64 0, i64 0), i8* %14, i8* %15)
  %17 = load i8*, i8** %9, align 8
  %18 = call i8* @strcat(i8* %17, i8* getelementptr inbounds ([2 x i8], [2 x i8]* @.str.1, i64 0, i64 0)) #4
  br label %19

19:                                               ; preds = %45, %2
  %20 = load i8*, i8** %9, align 8
  %21 = load i8, i8* %20, align 1
  %22 = icmp ne i8 %21, 0
  br i1 %22, label %23, label %46

23:                                               ; preds = %19
  %24 = load i8*, i8** %9, align 8
  %25 = call i8* @strchr(i8* %24, i32 32) #5
  store i8* %25, i8** %10, align 8
  %26 = load i8*, i8** %10, align 8
  store i8 0, i8* %26, align 1
  %27 = load i8*, i8** %9, align 8
  %28 = getelementptr inbounds [255 x i8], [255 x i8]* %7, i64 0, i64 0
  %29 = call i32 @strcmp(i8* %27, i8* %28) #5
  %30 = icmp eq i32 %29, 0
  br i1 %30, label %31, label %34

31:                                               ; preds = %23
  %32 = getelementptr inbounds [255 x i8], [255 x i8]* %8, i64 0, i64 0
  %33 = call i32 (i8*, ...) @printf(i8* getelementptr inbounds ([3 x i8], [3 x i8]* @.str.2, i64 0, i64 0), i8* %32)
  br label %37

34:                                               ; preds = %23
  %35 = load i8*, i8** %9, align 8
  %36 = call i32 (i8*, ...) @printf(i8* getelementptr inbounds ([3 x i8], [3 x i8]* @.str.2, i64 0, i64 0), i8* %35)
  br label %37

37:                                               ; preds = %34, %31
  %38 = load i8*, i8** %10, align 8
  %39 = getelementptr inbounds i8, i8* %38, i64 1
  store i8* %39, i8** %9, align 8
  %40 = load i8*, i8** %9, align 8
  %41 = load i8, i8* %40, align 1
  %42 = icmp ne i8 %41, 0
  br i1 %42, label %43, label %45

43:                                               ; preds = %37
  %44 = call i32 (i8*, ...) @printf(i8* getelementptr inbounds ([2 x i8], [2 x i8]* @.str.1, i64 0, i64 0))
  br label %45

45:                                               ; preds = %43, %37
  br label %19

46:                                               ; preds = %19
  ret i32 0
}

declare dso_local i32 @gets(...) #1

declare dso_local i32 @__isoc99_scanf(i8*, ...) #1

; Function Attrs: nounwind
declare dso_local i8* @strcat(i8*, i8*) #2

; Function Attrs: nounwind readonly
declare dso_local i8* @strchr(i8*, i32) #3

; Function Attrs: nounwind readonly
declare dso_local i32 @strcmp(i8*, i8*) #3

declare dso_local i32 @printf(i8*, ...) #1


!llvm.module.flags = !{!0}
!llvm.ident = !{!1}

!0 = !{i32 1, !"wchar_size", i32 4}
!1 = !{!"clang version 10.0.0-4ubuntu1 "}
