; ModuleID = 'source-C-CXX/18/227.c'
source_filename = "source-C-CXX/18/227.c"
target datalayout = "e-m:e-p270:32:32-p271:32:32-p272:64:64-i64:64-f80:128-n8:16:32:64-S128"
target triple = "x86_64-pc-linux-gnu"

@.str = private unnamed_addr constant [5 x i8] c"%s%s\00", align 1
@.str.2 = private unnamed_addr constant [3 x i8] c"%s\00", align 1

; Function Attrs: nounwind sspstrong uwtable
define dso_local i32 @main(i32 %0, i8** nocapture readnone %1) local_unnamed_addr #0 {
  %3 = alloca [255 x i8], align 16
  %4 = alloca [255 x i8], align 16
  %5 = alloca [255 x i8], align 16
  %6 = getelementptr inbounds [255 x i8], [255 x i8]* %3, i64 0, i64 0
  call void @llvm.lifetime.start.p0i8(i64 255, i8* nonnull %6) #7
  %7 = getelementptr inbounds [255 x i8], [255 x i8]* %4, i64 0, i64 0
  call void @llvm.lifetime.start.p0i8(i64 255, i8* nonnull %7) #7
  %8 = getelementptr inbounds [255 x i8], [255 x i8]* %5, i64 0, i64 0
  call void @llvm.lifetime.start.p0i8(i64 255, i8* nonnull %8) #7
  %9 = call i32 (i8*, ...) bitcast (i32 (...)* @gets to i32 (i8*, ...)*)(i8* nonnull %6) #7
  %10 = call i32 (i8*, ...) @__isoc99_scanf(i8* getelementptr inbounds ([5 x i8], [5 x i8]* @.str, i64 0, i64 0), i8* nonnull %7, i8* nonnull %8)
  %11 = call i64 @strlen(i8* noundef nonnull %6)
  %12 = getelementptr [255 x i8], [255 x i8]* %3, i64 0, i64 %11
  %13 = bitcast i8* %12 to i16*
  store i16 32, i16* %13, align 1
  %14 = load i8, i8* %6, align 16, !tbaa !5
  %15 = icmp eq i8 %14, 0
  br i1 %15, label %30, label %16

16:                                               ; preds = %2, %26
  %17 = phi i8* [ %23, %26 ], [ %6, %2 ]
  %18 = call i8* @strchr(i8* noundef nonnull %17, i32 32) #8
  store i8 0, i8* %18, align 1, !tbaa !5
  %19 = call i32 @strcmp(i8* noundef nonnull %17, i8* noundef nonnull %7) #8
  %20 = icmp eq i32 %19, 0
  %21 = select i1 %20, i8* %8, i8* %17
  %22 = call i32 (i8*, ...) @printf(i8* nonnull dereferenceable(1) getelementptr inbounds ([3 x i8], [3 x i8]* @.str.2, i64 0, i64 0), i8* nonnull %21)
  %23 = getelementptr inbounds i8, i8* %18, i64 1
  %24 = load i8, i8* %23, align 1, !tbaa !5
  %25 = icmp eq i8 %24, 0
  br i1 %25, label %30, label %26

26:                                               ; preds = %16
  %27 = call i32 @putchar(i32 32)
  %28 = load i8, i8* %23, align 1, !tbaa !5
  %29 = icmp eq i8 %28, 0
  br i1 %29, label %30, label %16, !llvm.loop !8

30:                                               ; preds = %16, %26, %2
  call void @llvm.lifetime.end.p0i8(i64 255, i8* nonnull %8) #7
  call void @llvm.lifetime.end.p0i8(i64 255, i8* nonnull %7) #7
  call void @llvm.lifetime.end.p0i8(i64 255, i8* nonnull %6) #7
  ret i32 0
}

; Function Attrs: argmemonly mustprogress nofree nosync nounwind willreturn
declare void @llvm.lifetime.start.p0i8(i64 immarg, i8* nocapture) #1

declare i32 @gets(...) local_unnamed_addr #2

; Function Attrs: nofree nounwind
declare noundef i32 @__isoc99_scanf(i8* nocapture noundef readonly, ...) local_unnamed_addr #3

; Function Attrs: argmemonly mustprogress nofree nounwind readonly willreturn
declare i8* @strchr(i8*, i32) local_unnamed_addr #4

; Function Attrs: argmemonly mustprogress nofree nounwind readonly willreturn
declare i32 @strcmp(i8* nocapture, i8* nocapture) local_unnamed_addr #4

; Function Attrs: nofree nounwind
declare noundef i32 @printf(i8* nocapture noundef readonly, ...) local_unnamed_addr #3

; Function Attrs: argmemonly mustprogress nofree nosync nounwind willreturn
declare void @llvm.lifetime.end.p0i8(i64 immarg, i8* nocapture) #1

; Function Attrs: argmemonly nofree nounwind readonly willreturn
declare i64 @strlen(i8* nocapture) local_unnamed_addr #5

; Function Attrs: nofree nounwind
declare noundef i32 @putchar(i32 noundef) local_unnamed_addr #6


!llvm.module.flags = !{!0, !1, !2, !3}
!llvm.ident = !{!4}

!0 = !{i32 1, !"wchar_size", i32 4}
!1 = !{i32 7, !"PIC Level", i32 2}
!2 = !{i32 7, !"PIE Level", i32 2}
!3 = !{i32 7, !"uwtable", i32 1}
!4 = !{!"clang version 13.0.0"}
!5 = !{!6, !6, i64 0}
!6 = !{!"omnipotent char", !7, i64 0}
!7 = !{!"Simple C/C++ TBAA"}
!8 = distinct !{!8, !9}
!9 = !{!"llvm.loop.mustprogress"}
